target datalayout = "e-m:e-p270:32:32-p271:32:32-p272:64:64-i64:64-i128:128-f80:128-n8:16:32:64-S128"
target triple = "x86_64-pc-linux-gnu"

%struct.AVChannelLayout = type { i32, i32, %union.anon.1, ptr }
%union.anon.1 = type { i64 }
%struct.AVFilterContext = type { ptr, ptr, ptr, ptr, ptr, i32, ptr, ptr, i32, ptr, ptr, i32, i32, ptr, ptr, ptr, ptr, i32, ptr, i32, i32 }
%struct.ANoiseSrcContext = type { ptr, i32, double, double, i64, i32, i64, i32, i64, i32, ptr, [7 x double], %struct.AVLFG }
%struct.AVLFG = type { [64 x i32], i32 }
%struct.AVFrame = type { [8 x ptr], [8 x i32], ptr, i32, i32, i32, i32, i32, %struct.AVRational, i64, i64, %struct.AVRational, i32, ptr, i32, i32, [8 x ptr], ptr, i32, ptr, i32, i32, i32, i32, i32, i32, i32, i64, ptr, i32, ptr, ptr, i64, i64, i64, i64, ptr, %struct.AVChannelLayout, i64 }
%struct.AVRational = type { i32, i32 }

; Function Attrs: inlinehint nounwind uwtable
define internal i32 @av_lfg_get(ptr noundef %0) #6 {
  %2 = alloca ptr, align 8
  %3 = alloca i32, align 4
  store ptr %0, ptr %2, align 8, !tbaa !65
  call void @llvm.lifetime.start.p0(i64 4, ptr %3) #7
  %4 = load ptr, ptr %2, align 8, !tbaa !65
  %5 = getelementptr inbounds nuw %struct.AVLFG, ptr %4, i32 0, i32 0
  %6 = load ptr, ptr %2, align 8, !tbaa !65
  %7 = getelementptr inbounds nuw %struct.AVLFG, ptr %6, i32 0, i32 1
  %8 = load i32, ptr %7, align 4, !tbaa !67
  %9 = sub nsw i32 %8, 24
  %10 = and i32 %9, 63
  %11 = sext i32 %10 to i64
  %12 = getelementptr inbounds [64 x i32], ptr %5, i64 0, i64 %11
  %13 = load i32, ptr %12, align 4, !tbaa !31
  %14 = load ptr, ptr %2, align 8, !tbaa !65
  %15 = getelementptr inbounds nuw %struct.AVLFG, ptr %14, i32 0, i32 0
  %16 = load ptr, ptr %2, align 8, !tbaa !65
  %17 = getelementptr inbounds nuw %struct.AVLFG, ptr %16, i32 0, i32 1
  %18 = load i32, ptr %17, align 4, !tbaa !67
  %19 = sub nsw i32 %18, 55
  %20 = and i32 %19, 63
  %21 = sext i32 %20 to i64
  %22 = getelementptr inbounds [64 x i32], ptr %15, i64 0, i64 %21
  %23 = load i32, ptr %22, align 4, !tbaa !31
  %24 = add i32 %13, %23
  %25 = load ptr, ptr %2, align 8, !tbaa !65
  %26 = getelementptr inbounds nuw %struct.AVLFG, ptr %25, i32 0, i32 0
  %27 = load ptr, ptr %2, align 8, !tbaa !65
  %28 = getelementptr inbounds nuw %struct.AVLFG, ptr %27, i32 0, i32 1
  %29 = load i32, ptr %28, align 4, !tbaa !67
  %30 = and i32 %29, 63
  %31 = sext i32 %30 to i64
  %32 = getelementptr inbounds [64 x i32], ptr %26, i64 0, i64 %31
  store i32 %24, ptr %32, align 4, !tbaa !31
  store i32 %24, ptr %3, align 4, !tbaa !31
  %33 = load ptr, ptr %2, align 8, !tbaa !65
  %34 = getelementptr inbounds nuw %struct.AVLFG, ptr %33, i32 0, i32 1
  %35 = load i32, ptr %34, align 4, !tbaa !67
  %36 = add i32 %35, 1
  store i32 %36, ptr %34, align 4, !tbaa !67
  %37 = load i32, ptr %3, align 4, !tbaa !31
  call void @llvm.lifetime.end.p0(i64 4, ptr %3) #7
  ret i32 %37
}

; Function Attrs: inlinehint nounwind uwtable
define internal void @ff_outlink_set_status(ptr noundef %0, i32 noundef %1, i64 noundef %2) #6 {
  %4 = alloca ptr, align 8
  %5 = alloca i32, align 4
  %6 = alloca i64, align 8
  store ptr %0, ptr %4, align 8, !tbaa !33
  store i32 %1, ptr %5, align 4, !tbaa !31
  store i64 %2, ptr %6, align 8, !tbaa !64
  %7 = load ptr, ptr %4, align 8, !tbaa !33
  %8 = load i32, ptr %5, align 4, !tbaa !31
  %9 = load i64, ptr %6, align 8, !tbaa !64
  call void @ff_avfilter_link_set_in_status(ptr noundef %7, i32 noundef %8, i64 noundef %9)
  ret void
}

; Function Attrs: nounwind uwtable
define internal i32 @activate(ptr noundef %0) #1 {
  %2 = alloca i32, align 4
  %3 = alloca ptr, align 8
  %4 = alloca ptr, align 8
  %5 = alloca ptr, align 8
  %6 = alloca ptr, align 8
  %7 = alloca i32, align 4
  %8 = alloca i32, align 4
  %9 = alloca ptr, align 8
  %10 = alloca i32, align 4
  %11 = alloca double, align 8
  store ptr %0, ptr %3, align 8, !tbaa !4
  call void @llvm.lifetime.start.p0(i64 8, ptr %4) #7
  %12 = load ptr, ptr %3, align 8, !tbaa !4
  %13 = getelementptr inbounds nuw %struct.AVFilterContext, ptr %12, i32 0, i32 7
  %14 = load ptr, ptr %13, align 8, !tbaa !32
  %15 = getelementptr inbounds ptr, ptr %14, i64 0
  %16 = load ptr, ptr %15, align 8, !tbaa !33
  store ptr %16, ptr %4, align 8, !tbaa !33
  call void @llvm.lifetime.start.p0(i64 8, ptr %5) #7
  %17 = load ptr, ptr %3, align 8, !tbaa !4
  %18 = getelementptr inbounds nuw %struct.AVFilterContext, ptr %17, i32 0, i32 9
  %19 = load ptr, ptr %18, align 8, !tbaa !12
  store ptr %19, ptr %5, align 8, !tbaa !24
  call void @llvm.lifetime.start.p0(i64 8, ptr %6) #7
  call void @llvm.lifetime.start.p0(i64 4, ptr %7) #7
  call void @llvm.lifetime.start.p0(i64 4, ptr %8) #7
  call void @llvm.lifetime.start.p0(i64 8, ptr %9) #7
  %20 = load ptr, ptr %4, align 8, !tbaa !33
  %21 = call i32 @ff_outlink_frame_wanted(ptr noundef %20)
  %22 = icmp ne i32 %21, 0
  br i1 %22, label %24, label %23

23:                                               ; preds = %1
  store i32 -1497649742, ptr %2, align 4
  store i32 1, ptr %10, align 4
  br label %131

24:                                               ; preds = %1
  %25 = load ptr, ptr %5, align 8, !tbaa !24
  %26 = getelementptr inbounds nuw %struct.ANoiseSrcContext, ptr %25, i32 0, i32 9
  %27 = load i32, ptr %26, align 8, !tbaa !35
  %28 = icmp ne i32 %27, 0
  br i1 %28, label %39, label %29

29:                                               ; preds = %24
  %30 = load ptr, ptr %5, align 8, !tbaa !24
  %31 = getelementptr inbounds nuw %struct.ANoiseSrcContext, ptr %30, i32 0, i32 4
  %32 = load i64, ptr %31, align 8, !tbaa !36
  %33 = icmp sle i64 %32, 0
  br i1 %33, label %34, label %39

34:                                               ; preds = %29
  %35 = load ptr, ptr %4, align 8, !tbaa !33
  %36 = load ptr, ptr %5, align 8, !tbaa !24
  %37 = getelementptr inbounds nuw %struct.ANoiseSrcContext, ptr %36, i32 0, i32 8
  %38 = load i64, ptr %37, align 8, !tbaa !37
  call void @ff_outlink_set_status(ptr noundef %35, i32 noundef -541478725, i64 noundef %38)
  store i32 0, ptr %2, align 4
  store i32 1, ptr %10, align 4
  br label %131

39:                                               ; preds = %29, %24
  %40 = load ptr, ptr %5, align 8, !tbaa !24
  %41 = getelementptr inbounds nuw %struct.ANoiseSrcContext, ptr %40, i32 0, i32 9
  %42 = load i32, ptr %41, align 8, !tbaa !35
  %43 = icmp ne i32 %42, 0
  br i1 %43, label %58, label %44

44:                                               ; preds = %39
  %45 = load ptr, ptr %5, align 8, !tbaa !24
  %46 = getelementptr inbounds nuw %struct.ANoiseSrcContext, ptr %45, i32 0, i32 4
  %47 = load i64, ptr %46, align 8, !tbaa !36
  %48 = load ptr, ptr %5, align 8, !tbaa !24
  %49 = getelementptr inbounds nuw %struct.ANoiseSrcContext, ptr %48, i32 0, i32 7
  %50 = load i32, ptr %49, align 8, !tbaa !38
  %51 = sext i32 %50 to i64
  %52 = icmp slt i64 %47, %51
  br i1 %52, label %53, label %58

53:                                               ; preds = %44
  %54 = load ptr, ptr %5, align 8, !tbaa !24
  %55 = getelementptr inbounds nuw %struct.ANoiseSrcContext, ptr %54, i32 0, i32 4
  %56 = load i64, ptr %55, align 8, !tbaa !36
  %57 = trunc i64 %56 to i32
  store i32 %57, ptr %7, align 4, !tbaa !31
  br label %62

58:                                               ; preds = %44, %39
  %59 = load ptr, ptr %5, align 8, !tbaa !24
  %60 = getelementptr inbounds nuw %struct.ANoiseSrcContext, ptr %59, i32 0, i32 7
  %61 = load i32, ptr %60, align 8, !tbaa !38
  store i32 %61, ptr %7, align 4, !tbaa !31
  br label %62

62:                                               ; preds = %58, %53
  br label %63

63:                                               ; preds = %62
  %64 = load ptr, ptr %4, align 8, !tbaa !33
  %65 = load i32, ptr %7, align 4, !tbaa !31
  %66 = call ptr @ff_get_audio_buffer(ptr noundef %64, i32 noundef %65)
  store ptr %66, ptr %6, align 8, !tbaa !39
  %67 = icmp ne ptr %66, null
  br i1 %67, label %69, label %68

68:                                               ; preds = %63
  store i32 -12, ptr %2, align 4
  store i32 1, ptr %10, align 4
  br label %131

69:                                               ; preds = %63
  %70 = load ptr, ptr %6, align 8, !tbaa !39
  %71 = getelementptr inbounds nuw %struct.AVFrame, ptr %70, i32 0, i32 0
  %72 = getelementptr inbounds [8 x ptr], ptr %71, i64 0, i64 0
  %73 = load ptr, ptr %72, align 8, !tbaa !41
  store ptr %73, ptr %9, align 8, !tbaa !42
  store i32 0, ptr %8, align 4, !tbaa !31
  br label %74

74:                                               ; preds = %101, %69
  %75 = load i32, ptr %8, align 4, !tbaa !31
  %76 = load i32, ptr %7, align 4, !tbaa !31
  %77 = icmp slt i32 %75, %76
  br i1 %77, label %78, label %104

78:                                               ; preds = %74
  call void @llvm.lifetime.start.p0(i64 8, ptr %11) #7
  %79 = load ptr, ptr %5, align 8, !tbaa !24
  %80 = getelementptr inbounds nuw %struct.ANoiseSrcContext, ptr %79, i32 0, i32 2
  %81 = load double, ptr %80, align 8, !tbaa !43
  %82 = load ptr, ptr %5, align 8, !tbaa !24
  %83 = getelementptr inbounds nuw %struct.ANoiseSrcContext, ptr %82, i32 0, i32 12
  %84 = call i32 @av_lfg_get(ptr noundef %83)
  %85 = uitofp i32 %84 to double
  %86 = fdiv nsz double %85, 0x41EFFFFFFFE00000
  %87 = call nsz double @llvm.fmuladd.f64(double 2.000000e+00, double %86, double -1.000000e+00)
  %88 = fmul nsz double %81, %87
  store double %88, ptr %11, align 8, !tbaa !44
  %89 = load ptr, ptr %5, align 8, !tbaa !24
  %90 = getelementptr inbounds nuw %struct.ANoiseSrcContext, ptr %89, i32 0, i32 10
  %91 = load ptr, ptr %90, align 8, !tbaa !45
  %92 = load double, ptr %11, align 8, !tbaa !44
  %93 = load ptr, ptr %5, align 8, !tbaa !24
  %94 = getelementptr inbounds nuw %struct.ANoiseSrcContext, ptr %93, i32 0, i32 11
  %95 = getelementptr inbounds [7 x double], ptr %94, i64 0, i64 0
  %96 = call nsz double %91(double noundef %92, ptr noundef %95)
  %97 = load ptr, ptr %9, align 8, !tbaa !42
  %98 = load i32, ptr %8, align 4, !tbaa !31
  %99 = sext i32 %98 to i64
  %100 = getelementptr inbounds double, ptr %97, i64 %99
  store double %96, ptr %100, align 8, !tbaa !44
  call void @llvm.lifetime.end.p0(i64 8, ptr %11) #7
  br label %101

101:                                              ; preds = %78
  %102 = load i32, ptr %8, align 4, !tbaa !31
  %103 = add nsw i32 %102, 1
  store i32 %103, ptr %8, align 4, !tbaa !31
  br label %74, !llvm.loop !46

104:                                              ; preds = %74
  %105 = load ptr, ptr %5, align 8, !tbaa !24
  %106 = getelementptr inbounds nuw %struct.ANoiseSrcContext, ptr %105, i32 0, i32 9
  %107 = load i32, ptr %106, align 8, !tbaa !35
  %108 = icmp ne i32 %107, 0
  br i1 %108, label %116, label %109

109:                                              ; preds = %104
  %110 = load i32, ptr %7, align 4, !tbaa !31
  %111 = sext i32 %110 to i64
  %112 = load ptr, ptr %5, align 8, !tbaa !24
  %113 = getelementptr inbounds nuw %struct.ANoiseSrcContext, ptr %112, i32 0, i32 4
  %114 = load i64, ptr %113, align 8, !tbaa !36
  %115 = sub nsw i64 %114, %111
  store i64 %115, ptr %113, align 8, !tbaa !36
  br label %116

116:                                              ; preds = %109, %104
  %117 = load ptr, ptr %5, align 8, !tbaa !24
  %118 = getelementptr inbounds nuw %struct.ANoiseSrcContext, ptr %117, i32 0, i32 8
  %119 = load i64, ptr %118, align 8, !tbaa !37
  %120 = load ptr, ptr %6, align 8, !tbaa !39
  %121 = getelementptr inbounds nuw %struct.AVFrame, ptr %120, i32 0, i32 9
  store i64 %119, ptr %121, align 8, !tbaa !48
  %122 = load i32, ptr %7, align 4, !tbaa !31
  %123 = sext i32 %122 to i64
  %124 = load ptr, ptr %5, align 8, !tbaa !24
  %125 = getelementptr inbounds nuw %struct.ANoiseSrcContext, ptr %124, i32 0, i32 8
  %126 = load i64, ptr %125, align 8, !tbaa !37
  %127 = add nsw i64 %126, %123
  store i64 %127, ptr %125, align 8, !tbaa !37
  %128 = load ptr, ptr %4, align 8, !tbaa !33
  %129 = load ptr, ptr %6, align 8, !tbaa !39
  %130 = call i32 @ff_filter_frame(ptr noundef %128, ptr noundef %129)
  store i32 %130, ptr %2, align 4
  store i32 1, ptr %10, align 4
  br label %131

131:                                              ; preds = %116, %68, %34, %23
  call void @llvm.lifetime.end.p0(i64 8, ptr %9) #7
  call void @llvm.lifetime.end.p0(i64 4, ptr %8) #7
  call void @llvm.lifetime.end.p0(i64 4, ptr %7) #7
  call void @llvm.lifetime.end.p0(i64 8, ptr %6) #7
  call void @llvm.lifetime.end.p0(i64 8, ptr %5) #7
  call void @llvm.lifetime.end.p0(i64 8, ptr %4) #7
  %132 = load i32, ptr %2, align 4
  ret i32 %132
}