; Function Attrs: nounwind uwtable
define internal i32 @activate(ptr noundef readonly captures(none) %0) #1 {
  %2 = getelementptr inbounds nuw i8, ptr %0, i64 56
  %3 = load ptr, ptr %2, align 8, !tbaa !26
  %4 = load ptr, ptr %3, align 8, !tbaa !27
  %5 = getelementptr inbounds nuw i8, ptr %0, i64 72
  %6 = load ptr, ptr %5, align 8, !tbaa !4
  %7 = tail call i32 @ff_outlink_frame_wanted(ptr noundef %4) #10
  %.not = icmp eq i32 %7, 0
  br i1 %.not, label %68, label %8

8:                                                ; preds = %1
  %9 = getelementptr inbounds nuw i8, ptr %6, i64 72
  %10 = load i32, ptr %9, align 8, !tbaa !29
  %.not38 = icmp eq i32 %10, 0
  br i1 %.not38, label %11, label %._crit_edge44

._crit_edge44:                                    ; preds = %8
  %.phi.trans.insert = getelementptr inbounds nuw i8, ptr %6, i64 56
  %.pre = load i32, ptr %.phi.trans.insert, align 8, !tbaa !30
  br label %22

11:                                               ; preds = %8
  %12 = getelementptr inbounds nuw i8, ptr %6, i64 32
  %13 = load i64, ptr %12, align 8, !tbaa !31
  %14 = icmp slt i64 %13, 1
  br i1 %14, label %15, label %18

15:                                               ; preds = %11
  %16 = getelementptr inbounds nuw i8, ptr %6, i64 64
  %17 = load i64, ptr %16, align 8, !tbaa !32
  tail call void @ff_avfilter_link_set_in_status(ptr noundef %4, i32 noundef -541478725, i64 noundef %17) #10
  br label %68

18:                                               ; preds = %11
  %19 = getelementptr inbounds nuw i8, ptr %6, i64 56
  %20 = load i32, ptr %19, align 8, !tbaa !30
  %21 = sext i32 %20 to i64
  %spec.select46 = tail call i64 @llvm.smin.i64(i64 %13, i64 %21)
  %spec.select = trunc i64 %spec.select46 to i32
  br label %22

22:                                               ; preds = %18, %._crit_edge44
  %.034 = phi i32 [ %.pre, %._crit_edge44 ], [ %spec.select, %18 ]
  %23 = tail call ptr @ff_get_audio_buffer(ptr noundef %4, i32 noundef %.034) #10
  %.not40 = icmp eq ptr %23, null
  br i1 %.not40, label %68, label %24

24:                                               ; preds = %22
  %25 = load ptr, ptr %23, align 8, !tbaa !33
  %26 = icmp sgt i32 %.034, 0
  br i1 %26, label %.lr.ph, label %._crit_edge

.lr.ph:                                           ; preds = %24
  %27 = getelementptr inbounds nuw i8, ptr %6, i64 16
  %28 = getelementptr inbounds nuw i8, ptr %6, i64 144
  %29 = getelementptr inbounds nuw i8, ptr %6, i64 400
  %30 = getelementptr inbounds nuw i8, ptr %6, i64 80
  %31 = getelementptr inbounds nuw i8, ptr %6, i64 88
  %wide.trip.count = zext nneg i32 %.034 to i64
  br label %32

32:                                               ; preds = %.lr.ph, %32
  %indvars.iv = phi i64 [ 0, %.lr.ph ], [ %indvars.iv.next, %32 ]
  %33 = load double, ptr %27, align 8, !tbaa !34
  %34 = load i32, ptr %29, align 4, !tbaa !35
  %35 = add i32 %34, 40
  %36 = and i32 %35, 63
  %37 = zext nneg i32 %36 to i64
  %38 = getelementptr inbounds nuw [64 x i32], ptr %28, i64 0, i64 %37
  %39 = load i32, ptr %38, align 4, !tbaa !25
  %40 = add i32 %34, 9
  %41 = and i32 %40, 63
  %42 = zext nneg i32 %41 to i64
  %43 = getelementptr inbounds nuw [64 x i32], ptr %28, i64 0, i64 %42
  %44 = load i32, ptr %43, align 4, !tbaa !25
  %45 = add i32 %44, %39
  %46 = and i32 %34, 63
  %47 = zext nneg i32 %46 to i64
  %48 = getelementptr inbounds nuw [64 x i32], ptr %28, i64 0, i64 %47
  store i32 %45, ptr %48, align 4, !tbaa !25
  %49 = add i32 %34, 1
  store i32 %49, ptr %29, align 4, !tbaa !35
  %50 = uitofp i32 %45 to double
  %51 = fdiv nsz double %50, 0x41EFFFFFFFE00000
  %52 = tail call nsz double @llvm.fmuladd.f64(double %51, double 2.000000e+00, double -1.000000e+00)
  %53 = fmul nsz double %33, %52
  %54 = load ptr, ptr %30, align 8, !tbaa !36
  %55 = tail call nsz double %54(double noundef %53, ptr noundef nonnull %31) #10
  %56 = getelementptr inbounds nuw double, ptr %25, i64 %indvars.iv
  store double %55, ptr %56, align 8, !tbaa !37
  %indvars.iv.next = add nuw nsw i64 %indvars.iv, 1
  %exitcond.not = icmp eq i64 %indvars.iv.next, %wide.trip.count
  br i1 %exitcond.not, label %._crit_edge, label %32, !llvm.loop !38

._crit_edge:                                      ; preds = %32, %24
  %57 = load i32, ptr %9, align 8, !tbaa !29
  %.not41 = icmp eq i32 %57, 0
  %58 = sext i32 %.034 to i64
  br i1 %.not41, label %59, label %._crit_edge._crit_edge

59:                                               ; preds = %._crit_edge
  %60 = getelementptr inbounds nuw i8, ptr %6, i64 32
  %61 = load i64, ptr %60, align 8, !tbaa !31
  %62 = sub nsw i64 %61, %58
  store i64 %62, ptr %60, align 8, !tbaa !31
  br label %._crit_edge._crit_edge

._crit_edge._crit_edge:                           ; preds = %._crit_edge, %59
  %63 = getelementptr inbounds nuw i8, ptr %6, i64 64
  %64 = load i64, ptr %63, align 8, !tbaa !32
  %65 = getelementptr inbounds nuw i8, ptr %23, i64 136
  store i64 %64, ptr %65, align 8, !tbaa !40
  %66 = add nsw i64 %64, %58
  store i64 %66, ptr %63, align 8, !tbaa !32
  %67 = tail call i32 @ff_filter_frame(ptr noundef %4, ptr noundef nonnull %23) #10
  br label %68

68:                                               ; preds = %22, %1, %._crit_edge._crit_edge, %15
  %.0 = phi i32 [ %67, %._crit_edge._crit_edge ], [ 0, %15 ], [ -1497649742, %1 ], [ -12, %22 ]
  ret i32 %.0
}